; Function Attrs: mustprogress nounwind uwtable
define internal fastcc void @"_ZZN3nix12FileTransfer8downloadEONS_19FileTransferRequestERNS_4SinkESt8functionIFvNS_18FileTransferResultEEEEN3$_1D2Ev"(ptr noundef nonnull align 8 dereferenceable(48) %0) unnamed_addr #5 align 2 personality ptr @__gxx_personality_v0 {
  %2 = getelementptr inbounds i8, ptr %0, i64 32
  %3 = load ptr, ptr %2, align 8
  %.not.i.i = icmp eq ptr %3, null
  br i1 %.not.i.i, label %_ZNSt8functionIFvN3nix18FileTransferResultEEED2Ev.exit, label %4

4:                                                ; preds = %1
  %5 = getelementptr inbounds i8, ptr %0, i64 16
  %6 = invoke noundef zeroext i1 %3(ptr noundef nonnull align 8 dereferenceable(16) %5, ptr noundef nonnull align 8 dereferenceable(16) %5, i32 noundef 3)
          to label %_ZNSt8functionIFvN3nix18FileTransferResultEEED2Ev.exit unwind label %7

7:                                                ; preds = %4
  %8 = landingpad { ptr, i32 }
          catch ptr null
  %9 = extractvalue { ptr, i32 } %8, 0
  tail call void @__clang_call_terminate(ptr %9) #33
  unreachable

_ZNSt8functionIFvN3nix18FileTransferResultEEED2Ev.exit: ; preds = %1, %4
  %10 = getelementptr inbounds i8, ptr %0, i64 8
  %.val = load ptr, ptr %10, align 8
  %.not.i.i.i = icmp eq ptr %.val, null
  br i1 %.not.i.i.i, label %_ZNSt10shared_ptrIN3nix4SyncIZNS0_12FileTransfer8downloadEONS0_19FileTransferRequestERNS0_4SinkESt8functionIFvNS0_18FileTransferResultEEEE5StateSt5mutexEEED2Ev.exit, label %11

11:                                               ; preds = %_ZNSt8functionIFvN3nix18FileTransferResultEEED2Ev.exit
  %12 = getelementptr inbounds i8, ptr %.val, i64 8
  %13 = load atomic i64, ptr %12 acquire, align 8
  %14 = icmp eq i64 %13, 4294967297
  %15 = trunc i64 %13 to i32
  br i1 %14, label %16, label %21

16:                                               ; preds = %11
  store i32 0, ptr %12, align 8
  %17 = getelementptr inbounds i8, ptr %.val, i64 12
  store i32 0, ptr %17, align 4
  %18 = load ptr, ptr %.val, align 8
  %19 = getelementptr inbounds i8, ptr %18, i64 16
  %20 = load ptr, ptr %19, align 8
  tail call void %20(ptr noundef nonnull align 8 dereferenceable(16) %.val) #32
  br label %_ZNSt16_Sp_counted_baseILN9__gnu_cxx12_Lock_policyE2EE24_M_release_last_use_coldEv.exit.sink.split.i.i.i.i

21:                                               ; preds = %11
  %22 = load i8, ptr @__libc_single_threaded, align 1
  %.not.i.i.i.i = icmp eq i8 %22, 0
  br i1 %.not.i.i.i.i, label %25, label %23

23:                                               ; preds = %21
  %24 = add nsw i32 %15, -1
  store i32 %24, ptr %12, align 4
  br label %27

25:                                               ; preds = %21
  %26 = atomicrmw volatile add ptr %12, i32 -1 acq_rel, align 4
  br label %27

27:                                               ; preds = %25, %23
  %.0.i.i.i.i = phi i32 [ %15, %23 ], [ %26, %25 ]
  %28 = icmp eq i32 %.0.i.i.i.i, 1
  br i1 %28, label %29, label %_ZNSt10shared_ptrIN3nix4SyncIZNS0_12FileTransfer8downloadEONS0_19FileTransferRequestERNS0_4SinkESt8functionIFvNS0_18FileTransferResultEEEE5StateSt5mutexEEED2Ev.exit

29:                                               ; preds = %27
  %30 = load ptr, ptr %.val, align 8
  %31 = getelementptr inbounds i8, ptr %30, i64 16
  %32 = load ptr, ptr %31, align 8
  tail call void %32(ptr noundef nonnull align 8 dereferenceable(16) %.val) #32
  %33 = getelementptr inbounds i8, ptr %.val, i64 12
  %34 = load i8, ptr @__libc_single_threaded, align 1
  %.not.i.i.i.i.i.i = icmp eq i8 %34, 0
  br i1 %.not.i.i.i.i.i.i, label %38, label %35

35:                                               ; preds = %29
  %36 = load i32, ptr %33, align 4
  %37 = add nsw i32 %36, -1
  store i32 %37, ptr %33, align 4
  br label %40

38:                                               ; preds = %29
  %39 = atomicrmw volatile add ptr %33, i32 -1 acq_rel, align 4
  br label %40

40:                                               ; preds = %38, %35
  %.0.i.i.i.i.i.i = phi i32 [ %36, %35 ], [ %39, %38 ]
  %41 = icmp eq i32 %.0.i.i.i.i.i.i, 1
  br i1 %41, label %_ZNSt16_Sp_counted_baseILN9__gnu_cxx12_Lock_policyE2EE24_M_release_last_use_coldEv.exit.sink.split.i.i.i.i, label %_ZNSt10shared_ptrIN3nix4SyncIZNS0_12FileTransfer8downloadEONS0_19FileTransferRequestERNS0_4SinkESt8functionIFvNS0_18FileTransferResultEEEE5StateSt5mutexEEED2Ev.exit

_ZNSt16_Sp_counted_baseILN9__gnu_cxx12_Lock_policyE2EE24_M_release_last_use_coldEv.exit.sink.split.i.i.i.i: ; preds = %40, %16
  %42 = load ptr, ptr %.val, align 8
  %43 = getelementptr inbounds i8, ptr %42, i64 24
  %44 = load ptr, ptr %43, align 8
  tail call void %44(ptr noundef nonnull align 8 dereferenceable(16) %.val) #32
  br label %_ZNSt10shared_ptrIN3nix4SyncIZNS0_12FileTransfer8downloadEONS0_19FileTransferRequestERNS0_4SinkESt8functionIFvNS0_18FileTransferResultEEEE5StateSt5mutexEEED2Ev.exit

_ZNSt10shared_ptrIN3nix4SyncIZNS0_12FileTransfer8downloadEONS0_19FileTransferRequestERNS0_4SinkESt8functionIFvNS0_18FileTransferResultEEEE5StateSt5mutexEEED2Ev.exit: ; preds = %_ZNSt8functionIFvN3nix18FileTransferResultEEED2Ev.exit, %27, %40, %_ZNSt16_Sp_counted_baseILN9__gnu_cxx12_Lock_policyE2EE24_M_release_last_use_coldEv.exit.sink.split.i.i.i.i
  ret void
}